#include <math.h>
#include <stdio.h>
#include <stdlib.h>
#include <string.h>

int main()
{
	int a,b,c[6]={0,0,0,0,0,0};
	scanf("%d",&a);
	if(a/10>0)
	{
		b=a/10;
		c[1]=a-10*b;
		c[2]=b;
		a=b;	
		if(a/10>0)
		{
			b=a/10;
			c[2]=a-10*b;
			c[3]=b;
			a=b;			
			if(a/10>0)
			{
				b=a/10;
				c[3]=a-10*b;
				c[4]=b;
				a=b;
				if(a/10>0)
				{
					b=a/10;
				    c[4]=a-10*b;
					c[5]=b;
					printf("%d%d%d%d%d",c[1],c[2],c[3],c[4],c[5]);
				}
				else printf("%d%d%d%d",c[1],c[2],c[3],c[4]);
			}
			else printf("%d%d%d",c[1],c[2],c[3]);
		}
		else printf("%d%d",c[1],c[2]);
	}
	else 
	{c[1]=a;
	printf("%d",c[1]);
	}
	return 0;
}