; ModuleID = 'source-C-CXX/15/568.c'
source_filename = "source-C-CXX/15/568.c"
target datalayout = "e-m:e-p270:32:32-p271:32:32-p272:64:64-i64:64-f80:128-n8:16:32:64-S128"
target triple = "x86_64-pc-linux-gnu"

@.str = private unnamed_addr constant [3 x i8] c"%d\00", align 1
@.str.1 = private unnamed_addr constant [11 x i8] c"%d%d%d%d%d\00", align 1
@.str.2 = private unnamed_addr constant [9 x i8] c"%d%d%d%d\00", align 1
@.str.3 = private unnamed_addr constant [7 x i8] c"%d%d%d\00", align 1
@.str.4 = private unnamed_addr constant [5 x i8] c"%d%d\00", align 1

; Function Attrs: nofree nounwind sspstrong uwtable
define dso_local i32 @main() local_unnamed_addr #0 {
  %1 = alloca i32, align 4
  %2 = bitcast i32* %1 to i8*
  call void @llvm.lifetime.start.p0i8(i64 4, i8* nonnull %2) #3
  %3 = call i32 (i8*, ...) @__isoc99_scanf(i8* getelementptr inbounds ([3 x i8], [3 x i8]* @.str, i64 0, i64 0), i32* nonnull %1)
  %4 = load i32, i32* %1, align 4, !tbaa !5
  %5 = sdiv i32 %4, 10
  %6 = icmp sgt i32 %4, 9
  br i1 %6, label %7, label %32

7:                                                ; preds = %0
  %8 = mul nsw i32 %5, -10
  %9 = add i32 %8, %4
  store i32 %5, i32* %1, align 4, !tbaa !5
  %10 = udiv i32 %4, 100
  %11 = icmp sgt i32 %4, 99
  br i1 %11, label %12, label %30

12:                                               ; preds = %7
  %13 = mul nsw i32 %10, -10
  %14 = add nsw i32 %13, %5
  store i32 %10, i32* %1, align 4, !tbaa !5
  %15 = udiv i32 %4, 1000
  %16 = icmp sgt i32 %4, 999
  br i1 %16, label %17, label %28

17:                                               ; preds = %12
  %18 = mul nsw i32 %15, -10
  %19 = add nsw i32 %18, %10
  store i32 %15, i32* %1, align 4, !tbaa !5
  %20 = udiv i32 %4, 10000
  %21 = icmp sgt i32 %4, 9999
  br i1 %21, label %22, label %26

22:                                               ; preds = %17
  %23 = mul nsw i32 %20, -10
  %24 = add nsw i32 %23, %15
  %25 = call i32 (i8*, ...) @printf(i8* nonnull dereferenceable(1) getelementptr inbounds ([11 x i8], [11 x i8]* @.str.1, i64 0, i64 0), i32 %9, i32 %14, i32 %19, i32 %24, i32 %20)
  br label %34

26:                                               ; preds = %17
  %27 = call i32 (i8*, ...) @printf(i8* nonnull dereferenceable(1) getelementptr inbounds ([9 x i8], [9 x i8]* @.str.2, i64 0, i64 0), i32 %9, i32 %14, i32 %19, i32 %15)
  br label %34

28:                                               ; preds = %12
  %29 = call i32 (i8*, ...) @printf(i8* nonnull dereferenceable(1) getelementptr inbounds ([7 x i8], [7 x i8]* @.str.3, i64 0, i64 0), i32 %9, i32 %14, i32 %10)
  br label %34

30:                                               ; preds = %7
  %31 = call i32 (i8*, ...) @printf(i8* nonnull dereferenceable(1) getelementptr inbounds ([5 x i8], [5 x i8]* @.str.4, i64 0, i64 0), i32 %9, i32 %5)
  br label %34

32:                                               ; preds = %0
  %33 = call i32 (i8*, ...) @printf(i8* nonnull dereferenceable(1) getelementptr inbounds ([3 x i8], [3 x i8]* @.str, i64 0, i64 0), i32 %4)
  br label %34

34:                                               ; preds = %30, %22, %26, %28, %32
  call void @llvm.lifetime.end.p0i8(i64 4, i8* nonnull %2) #3
  ret i32 0
}

; Function Attrs: argmemonly mustprogress nofree nosync nounwind willreturn
declare void @llvm.lifetime.start.p0i8(i64 immarg, i8* nocapture) #1

; Function Attrs: nofree nounwind
declare noundef i32 @__isoc99_scanf(i8* nocapture noundef readonly, ...) local_unnamed_addr #2

; Function Attrs: nofree nounwind
declare noundef i32 @printf(i8* nocapture noundef readonly, ...) local_unnamed_addr #2

; Function Attrs: argmemonly mustprogress nofree nosync nounwind willreturn
declare void @llvm.lifetime.end.p0i8(i64 immarg, i8* nocapture) #1


!llvm.module.flags = !{!0, !1, !2, !3}
!llvm.ident = !{!4}

!0 = !{i32 1, !"wchar_size", i32 4}
!1 = !{i32 7, !"PIC Level", i32 2}
!2 = !{i32 7, !"PIE Level", i32 2}
!3 = !{i32 7, !"uwtable", i32 1}
!4 = !{!"clang version 13.0.0"}
!5 = !{!6, !6, i64 0}
!6 = !{!"int", !7, i64 0}
!7 = !{!"omnipotent char", !8, i64 0}
!8 = !{!"Simple C/C++ TBAA"}
